ARM GAS  /tmp/ccix2qs8.s 			page 1


   1              		.cpu cortex-m4
   2              		.eabi_attribute 27, 1
   3              		.eabi_attribute 28, 1
   4              		.eabi_attribute 20, 1
   5              		.eabi_attribute 21, 1
   6              		.eabi_attribute 23, 3
   7              		.eabi_attribute 24, 1
   8              		.eabi_attribute 25, 1
   9              		.eabi_attribute 26, 1
  10              		.eabi_attribute 30, 2
  11              		.eabi_attribute 34, 1
  12              		.eabi_attribute 18, 4
  13              		.file	"main.c"
  14              		.text
  15              	.Ltext0:
  16              		.cfi_sections	.debug_frame
  17              		.section	.text.startup.main,"ax",%progbits
  18              		.align	1
  19              		.p2align 4,,15
  20              		.global	main
  21              		.syntax unified
  22              		.thumb
  23              		.thumb_func
  24              		.fpu fpv4-sp-d16
  25              		.type	main, %function
  26              	main:
  27              	.LFB259:
  28              		.file 1 "main.c"
  29              		.loc 1 21 0
  30              		.cfi_startproc
  31              		@ Volatile: function does not return.
  32              		@ args = 0, pretend = 0, frame = 8
  33              		@ frame_needed = 0, uses_anonymous_args = 0
  34 0000 00B5     		push	{lr}
  35              		.cfi_def_cfa_offset 4
  36              		.cfi_offset 14, -4
  37 0002 1D4B     		ldr	r3, .L9
  38              		.loc 1 46 0
  39 0004 1D4C     		ldr	r4, .L9+4
  40              		.loc 1 21 0
  41 0006 1B68     		ldr	r3, [r3]
  42 0008 83B0     		sub	sp, sp, #12
  43              		.cfi_def_cfa_offset 16
  44              		.loc 1 21 0
  45 000a 0193     		str	r3, [sp, #4]
  46              		.loc 1 23 0
  47 000c FFF7FEFF 		bl	halInit
  48              	.LVL0:
  49              		.loc 1 24 0
  50 0010 FFF7FEFF 		bl	chSysInit
  51              	.LVL1:
  52              		.loc 1 25 0
  53 0014 FFF7FEFF 		bl	mpu_init
  54              	.LVL2:
  55              		.loc 1 28 0
  56 0018 194A     		ldr	r2, .L9+8
  57 001a 1A49     		ldr	r1, .L9+12
ARM GAS  /tmp/ccix2qs8.s 			page 2


  58 001c 1A48     		ldr	r0, .L9+16
  59 001e FFF7FEFF 		bl	messagebus_init
  60              	.LVL3:
  61              		.loc 1 29 0
  62 0022 0020     		movs	r0, #0
  63 0024 FFF7FEFF 		bl	proximity_start
  64              	.LVL4:
  65              		.loc 1 30 0
  66 0028 FFF7FEFF 		bl	calibrate_ir
  67              	.LVL5:
  68              		.loc 1 33 0
  69 002c FFF7FEFF 		bl	clear_leds
  70              	.LVL6:
  71              		.loc 1 34 0
  72 0030 FFF7FEFF 		bl	spi_comm_start
  73              	.LVL7:
  74              		.loc 1 37 0
  75 0034 FFF7FEFF 		bl	motors_init
  76              	.LVL8:
  77 0038 09E0     		b	.L2
  78              	.L5:
  79              		.loc 1 44 0
  80 003a 0220     		movs	r0, #2
  81 003c FFF7FEFF 		bl	set_front_led
  82              	.LVL9:
  83              		.loc 1 45 0
  84 0040 4FF4FA70 		mov	r0, #500
  85 0044 FFF7FEFF 		bl	left_motor_set_speed
  86              	.LVL10:
  87              		.loc 1 46 0
  88 0048 2046     		mov	r0, r4
  89 004a FFF7FEFF 		bl	right_motor_set_speed
  90              	.LVL11:
  91              	.L2:
  92              		.loc 1 42 0
  93 004e 0020     		movs	r0, #0
  94 0050 FFF7FEFF 		bl	get_calibrated_prox
  95              	.LVL12:
  96 0054 C728     		cmp	r0, #199
  97 0056 4FF00700 		mov	r0, #7
  98 005a EEDC     		bgt	.L5
  99              		.loc 1 42 0 is_stmt 0 discriminator 1
 100 005c FFF7FEFF 		bl	get_calibrated_prox
 101              	.LVL13:
 102 0060 C728     		cmp	r0, #199
 103 0062 EADC     		bgt	.L5
 104              		.loc 1 50 0 is_stmt 1
 105 0064 4FF4FA70 		mov	r0, #500
 106 0068 FFF7FEFF 		bl	left_motor_set_speed
 107              	.LVL14:
 108              		.loc 1 51 0
 109 006c 4FF4FA70 		mov	r0, #500
 110 0070 FFF7FEFF 		bl	right_motor_set_speed
 111              	.LVL15:
 112 0074 EBE7     		b	.L2
 113              	.L10:
 114 0076 00BF     		.align	2
ARM GAS  /tmp/ccix2qs8.s 			page 3


 115              	.L9:
 116 0078 00000000 		.word	__stack_chk_guard
 117 007c 0CFEFFFF 		.word	-500
 118 0080 00000000 		.word	.LANCHOR0
 119 0084 00000000 		.word	.LANCHOR1
 120 0088 00000000 		.word	.LANCHOR2
 121              		.cfi_endproc
 122              	.LFE259:
 123              		.size	main, .-main
 124              		.section	.text.__stack_chk_fail,"ax",%progbits
 125              		.align	1
 126              		.p2align 4,,15
 127              		.global	__stack_chk_fail
 128              		.syntax unified
 129              		.thumb
 130              		.thumb_func
 131              		.fpu fpv4-sp-d16
 132              		.type	__stack_chk_fail, %function
 133              	__stack_chk_fail:
 134              	.LFB260:
 135              		.loc 1 60 0
 136              		.cfi_startproc
 137              		@ args = 0, pretend = 0, frame = 8
 138              		@ frame_needed = 0, uses_anonymous_args = 0
 139 0000 00B5     		push	{lr}
 140              		.cfi_def_cfa_offset 4
 141              		.cfi_offset 14, -4
 142 0002 084B     		ldr	r3, .L16
 143 0004 83B0     		sub	sp, sp, #12
 144              		.cfi_def_cfa_offset 16
 145              		.loc 1 60 0
 146 0006 1A68     		ldr	r2, [r3]
 147 0008 0192     		str	r2, [sp, #4]
 148              		.loc 1 61 0
 149 000a 019A     		ldr	r2, [sp, #4]
 150 000c 1B68     		ldr	r3, [r3]
 151 000e 9A42     		cmp	r2, r3
 152 0010 05D1     		bne	.L15
 153 0012 0548     		ldr	r0, .L16+4
 154              		.loc 1 62 0
 155 0014 03B0     		add	sp, sp, #12
 156              		.cfi_remember_state
 157              		.cfi_def_cfa_offset 4
 158              		@ sp needed
 159 0016 5DF804EB 		ldr	lr, [sp], #4
 160              		.cfi_restore 14
 161              		.cfi_def_cfa_offset 0
 162              		.loc 1 61 0
 163 001a FFF7FEBF 		b	chSysHalt
 164              	.LVL16:
 165              	.L15:
 166              		.cfi_restore_state
 167 001e FFF7FEFF 		bl	__stack_chk_fail
 168              	.LVL17:
 169              	.L17:
 170 0022 00BF     		.align	2
 171              	.L16:
ARM GAS  /tmp/ccix2qs8.s 			page 4


 172 0024 00000000 		.word	__stack_chk_guard
 173 0028 00000000 		.word	.LC0
 174              		.cfi_endproc
 175              	.LFE260:
 176              		.size	__stack_chk_fail, .-__stack_chk_fail
 177              		.global	__stack_chk_guard
 178              		.global	bus_condvar
 179              		.global	bus_lock
 180              		.global	bus
 181              		.section	.bss.bus,"aw",%nobits
 182              		.align	2
 183              		.set	.LANCHOR2,. + 0
 184              		.type	bus, %object
 185              		.size	bus, 12
 186              	bus:
 187 0000 00000000 		.space	12
 187      00000000 
 187      00000000 
 188              		.section	.data.__stack_chk_guard,"aw",%progbits
 189              		.align	2
 190              		.type	__stack_chk_guard, %object
 191              		.size	__stack_chk_guard, 4
 192              	__stack_chk_guard:
 193 0000 96E3DEE2 		.word	-488709226
 194              		.section	.data.bus_condvar,"aw",%progbits
 195              		.align	2
 196              		.set	.LANCHOR0,. + 0
 197              		.type	bus_condvar, %object
 198              		.size	bus_condvar, 8
 199              	bus_condvar:
 200 0000 00000000 		.word	bus_condvar
 201 0004 00000000 		.word	bus_condvar
 202              		.section	.data.bus_lock,"aw",%progbits
 203              		.align	2
 204              		.set	.LANCHOR1,. + 0
 205              		.type	bus_lock, %object
 206              		.size	bus_lock, 20
 207              	bus_lock:
 208 0000 00000000 		.word	bus_lock
 209 0004 00000000 		.word	bus_lock
 210 0008 00000000 		.word	0
 211 000c 00000000 		.word	0
 212 0010 00000000 		.word	0
 213              		.section	.rodata.__stack_chk_fail.str1.4,"aMS",%progbits,1
 214              		.align	2
 215              	.LC0:
 216 0000 53746163 		.ascii	"Stack smashing detected\000"
 216      6B20736D 
 216      61736869 
 216      6E672064 
 216      65746563 
 217              		.text
 218              	.Letext0:
 219              		.file 2 "/home/acse-lab/Documents/JASHands/Eclipse_e-puck2/Tools/gcc-arm-none-eabi-7-2017-q4-major
 220              		.file 3 "/home/acse-lab/Documents/JASHands/Eclipse_e-puck2/Tools/gcc-arm-none-eabi-7-2017-q4-major
 221              		.file 4 "/home/acse-lab/Documents/JASHands/Eclipse_e-puck2/Tools/gcc-arm-none-eabi-7-2017-q4-major
 222              		.file 5 "/home/acse-lab/Documents/JASHands/Eclipse_e-puck2/Tools/gcc-arm-none-eabi-7-2017-q4-major
ARM GAS  /tmp/ccix2qs8.s 			page 5


 223              		.file 6 "/home/acse-lab/Documents/JASHands/Eclipse_e-puck2/Tools/gcc-arm-none-eabi-7-2017-q4-major
 224              		.file 7 "/home/acse-lab/Documents/JASHands/Eclipse_e-puck2/Tools/gcc-arm-none-eabi-7-2017-q4-major
 225              		.file 8 "/home/acse-lab/Documents/JASHands/Eclipse_e-puck2/Tools/gcc-arm-none-eabi-7-2017-q4-major
 226              		.file 9 "/home/acse-lab/Documents/JASHands/Eclipse_e-puck2/Tools/gcc-arm-none-eabi-7-2017-q4-major
 227              		.file 10 "../e-puck2_main-processor/ChibiOS//os/rt/ports/ARMCMx/compilers/GCC/chtypes.h"
 228              		.file 11 "../e-puck2_main-processor/ChibiOS//os/rt/include/chsystypes.h"
 229              		.file 12 "../e-puck2_main-processor/ChibiOS//os/rt/include/chschd.h"
 230              		.file 13 "../e-puck2_main-processor/ChibiOS//os/ext/CMSIS/include/core_cm4.h"
 231              		.file 14 "../e-puck2_main-processor/ChibiOS//os/ext/CMSIS/ST/system_stm32f4xx.h"
 232              		.file 15 "../e-puck2_main-processor/ChibiOS//os/ext/CMSIS/ST/stm32f407xx.h"
 233              		.file 16 "../e-puck2_main-processor/ChibiOS//os/rt/ports/ARMCMx/chcore.h"
 234              		.file 17 "../e-puck2_main-processor/ChibiOS//os/rt/ports/ARMCMx/chcore_v7m.h"
 235              		.file 18 "../e-puck2_main-processor/ChibiOS//os/rt/include/chdebug.h"
 236              		.file 19 "../e-puck2_main-processor/ChibiOS//os/rt/include/chtm.h"
 237              		.file 20 "../e-puck2_main-processor/ChibiOS//os/rt/include/chstats.h"
 238              		.file 21 "../e-puck2_main-processor/ChibiOS//os/rt/include/chsem.h"
 239              		.file 22 "../e-puck2_main-processor/ChibiOS//os/rt/include/chmtx.h"
 240              		.file 23 "../e-puck2_main-processor/ChibiOS//os/rt/include/chregistry.h"
 241              		.file 24 "../e-puck2_main-processor/ChibiOS//os/rt/include/chcond.h"
 242              		.file 25 "../e-puck2_main-processor/ChibiOS//os/rt/include/chevents.h"
 243              		.file 26 "../e-puck2_main-processor/ChibiOS//os/rt/include/chqueues.h"
 244              		.file 27 "../e-puck2_main-processor/ChibiOS//os/hal/ports/STM32/STM32F4xx/stm32_dma.h"
 245              		.file 28 "../e-puck2_main-processor/ChibiOS//os/hal/include/hal_ioblock.h"
 246              		.file 29 "../e-puck2_main-processor/ChibiOS//os/hal/ports/STM32/LLD/GPIOv2/pal_lld.h"
 247              		.file 30 "../e-puck2_main-processor/ChibiOS//os/hal/include/adc.h"
 248              		.file 31 "../e-puck2_main-processor/ChibiOS//os/hal/ports/STM32/STM32F4xx/adc_lld.h"
 249              		.file 32 "../e-puck2_main-processor/ChibiOS//os/hal/include/can.h"
 250              		.file 33 "../e-puck2_main-processor/ChibiOS//os/hal/ports/STM32/LLD/can_lld.h"
 251              		.file 34 "../e-puck2_main-processor/ChibiOS//os/hal/include/dac.h"
 252              		.file 35 "../e-puck2_main-processor/ChibiOS//os/hal/ports/STM32/LLD/DACv1/dac_lld.h"
 253              		.file 36 "../e-puck2_main-processor/ChibiOS//os/hal/include/ext.h"
 254              		.file 37 "../e-puck2_main-processor/ChibiOS//os/hal/ports/STM32/LLD/ext_lld.h"
 255              		.file 38 "../e-puck2_main-processor/ChibiOS//os/hal/include/gpt.h"
 256              		.file 39 "../e-puck2_main-processor/ChibiOS//os/hal/ports/STM32/LLD/TIMv1/gpt_lld.h"
 257              		.file 40 "../e-puck2_main-processor/ChibiOS//os/hal/ports/STM32/LLD/TIMv1/stm32_tim.h"
 258              		.file 41 "../e-puck2_main-processor/ChibiOS//os/hal/include/i2c.h"
 259              		.file 42 "../e-puck2_main-processor/ChibiOS//os/hal/ports/STM32/LLD/I2Cv1/i2c_lld.h"
 260              		.file 43 "../e-puck2_main-processor/ChibiOS//os/hal/include/i2s.h"
 261              		.file 44 "../e-puck2_main-processor/ChibiOS//os/hal/ports/STM32/LLD/SPIv1/i2s_lld.h"
 262              		.file 45 "../e-puck2_main-processor/ChibiOS//os/hal/include/pwm.h"
 263              		.file 46 "../e-puck2_main-processor/ChibiOS//os/hal/ports/STM32/LLD/TIMv1/pwm_lld.h"
 264              		.file 47 "../e-puck2_main-processor/ChibiOS//os/hal/include/serial.h"
 265              		.file 48 "../e-puck2_main-processor/ChibiOS//os/hal/ports/STM32/LLD/USARTv1/serial_lld.h"
 266              		.file 49 "../e-puck2_main-processor/ChibiOS//os/hal/include/sdc.h"
 267              		.file 50 "../e-puck2_main-processor/ChibiOS//os/hal/ports/STM32/LLD/sdc_lld.h"
 268              		.file 51 "../e-puck2_main-processor/ChibiOS//os/hal/include/spi.h"
 269              		.file 52 "../e-puck2_main-processor/ChibiOS//os/hal/ports/STM32/LLD/SPIv1/spi_lld.h"
 270              		.file 53 "../e-puck2_main-processor/ChibiOS//os/hal/include/usb.h"
 271              		.file 54 "../e-puck2_main-processor/ChibiOS//os/hal/ports/STM32/LLD/OTGv1/usb_lld.h"
 272              		.file 55 "../e-puck2_main-processor/ChibiOS//os/hal/ports/STM32/LLD/OTGv1/stm32_otg.h"
 273              		.file 56 "/home/acse-lab/Documents/JASHands/Eclipse_e-puck2/Tools/gcc-arm-none-eabi-7-2017-q4-majo
 274              		.file 57 "../e-puck2_main-processor/src/msgbus/messagebus.h"
 275              		.file 58 "../e-puck2_main-processor/src/parameter/parameter.h"
 276              		.file 59 "./main.h"
 277              		.file 60 "../e-puck2_main-processor/src/motors.h"
 278              		.file 61 "../e-puck2_main-processor/ChibiOS//os/rt/include/chsys.h"
 279              		.file 62 "../e-puck2_main-processor/ChibiOS//os/hal/include/hal.h"
ARM GAS  /tmp/ccix2qs8.s 			page 6


 280              		.file 63 "../e-puck2_main-processor/src/memory_protection.h"
 281              		.file 64 "../e-puck2_main-processor/src/sensors/proximity.h"
 282              		.file 65 "../e-puck2_main-processor/src/leds.h"
 283              		.file 66 "../e-puck2_main-processor/src/spi_comm.h"